target datalayout = "e-m:e-p270:32:32-p271:32:32-p272:64:64-i64:64-i128:128-f80:128-n8:16:32:64-S128"
target triple = "x86_64-pc-linux-gnu"

%"class.sls::bvect" = type <{ %class.svector, i32, i32, i32, [4 x i8] }>
%class.svector = type { %class.vector }
%class.vector = type { ptr }
%"class.sls::bv_valuation" = type { %"class.sls::bvect", %"class.sls::bvect", %"class.sls::bvect", %"class.sls::bvect", %"class.sls::bvect", %"class.sls::bvect", i32, i32, i32, i32, %"class.sls::bvect" }

; Function Attrs: mustprogress nounwind uwtable
define linkonce_odr hidden noundef nonnull align 4 dereferenceable(4) ptr @_ZN6vectorIjLb0EjEixEj(ptr noundef nonnull align 8 dereferenceable(8) %0, i32 noundef %1) #5 comdat align 2 {
  %3 = alloca ptr, align 8
  %4 = alloca i32, align 4
  store ptr %0, ptr %3, align 8, !tbaa !17
  store i32 %1, ptr %4, align 4, !tbaa !8
  %5 = load ptr, ptr %3, align 8
  %6 = getelementptr inbounds nuw %class.vector, ptr %5, i32 0, i32 0
  %7 = load ptr, ptr %6, align 8, !tbaa !19
  %8 = load i32, ptr %4, align 4, !tbaa !8
  %9 = zext i32 %8 to i64
  %10 = getelementptr inbounds nuw i32, ptr %7, i64 %9
  ret ptr %10
}

; Function Attrs: mustprogress nounwind uwtable
define linkonce_odr hidden noundef nonnull align 4 dereferenceable(4) ptr @_ZNK6vectorIjLb0EjEixEj(ptr noundef nonnull align 8 dereferenceable(8) %0, i32 noundef %1) #5 comdat align 2 {
  %3 = alloca ptr, align 8
  %4 = alloca i32, align 4
  store ptr %0, ptr %3, align 8, !tbaa !17
  store i32 %1, ptr %4, align 4, !tbaa !8
  %5 = load ptr, ptr %3, align 8
  %6 = getelementptr inbounds nuw %class.vector, ptr %5, i32 0, i32 0
  %7 = load ptr, ptr %6, align 8, !tbaa !19
  %8 = load i32, ptr %4, align 4, !tbaa !8
  %9 = zext i32 %8 to i64
  %10 = getelementptr inbounds nuw i32, ptr %7, i64 %9
  ret ptr %10
}

; Function Attrs: mustprogress uwtable
define linkonce_odr hidden noundef nonnull align 4 dereferenceable(4) ptr @_ZN3sls5bvect12get_bit_wordEj(ptr noundef nonnull align 8 dereferenceable(20) %0, i32 noundef %1) #4 comdat align 2 {
  %3 = alloca ptr, align 8
  %4 = alloca i32, align 4
  store ptr %0, ptr %3, align 8, !tbaa !3
  store i32 %1, ptr %4, align 4, !tbaa !8
  %5 = load ptr, ptr %3, align 8
  %6 = load i32, ptr %4, align 4, !tbaa !8
  %7 = zext i32 %6 to i64
  %8 = udiv i64 %7, 32
  %9 = trunc i64 %8 to i32
  %10 = call noundef nonnull align 4 dereferenceable(4) ptr @_ZN6vectorIjLb0EjEixEj(ptr noundef nonnull align 8 dereferenceable(8) %5, i32 noundef %9)
  ret ptr %10
}

; Function Attrs: mustprogress nounwind uwtable
define linkonce_odr hidden noundef i32 @_ZN3sls5bvect12get_pos_maskEj(i32 noundef %0) #5 comdat align 2 {
  %2 = alloca i32, align 4
  store i32 %0, ptr %2, align 4, !tbaa !8
  %3 = load i32, ptr %2, align 4, !tbaa !8
  %4 = zext i32 %3 to i64
  %5 = urem i64 %4, 32
  %6 = trunc i64 %5 to i32
  %7 = shl i32 1, %6
  ret i32 %7
}

; Function Attrs: mustprogress uwtable
define linkonce_odr hidden noundef i32 @_ZNK3sls5bvect12get_bit_wordEj(ptr noundef nonnull align 8 dereferenceable(20) %0, i32 noundef %1) #4 comdat align 2 {
  %3 = alloca ptr, align 8
  %4 = alloca i32, align 4
  store ptr %0, ptr %3, align 8, !tbaa !3
  store i32 %1, ptr %4, align 4, !tbaa !8
  %5 = load ptr, ptr %3, align 8
  %6 = load i32, ptr %4, align 4, !tbaa !8
  %7 = zext i32 %6 to i64
  %8 = udiv i64 %7, 32
  %9 = trunc i64 %8 to i32
  %10 = call noundef nonnull align 4 dereferenceable(4) ptr @_ZNK6vectorIjLb0EjEixEj(ptr noundef nonnull align 8 dereferenceable(8) %5, i32 noundef %9)
  %11 = load i32, ptr %10, align 4, !tbaa !8
  ret i32 %11
}

; Function Attrs: mustprogress uwtable
define linkonce_odr hidden void @_ZN3sls5bvect3setEjb(ptr noundef nonnull align 8 dereferenceable(20) %0, i32 noundef %1, i1 noundef zeroext %2) #4 comdat align 2 {
  %4 = alloca ptr, align 8
  %5 = alloca i32, align 4
  %6 = alloca i8, align 1
  %7 = alloca i32, align 4
  store ptr %0, ptr %4, align 8, !tbaa !3
  store i32 %1, ptr %5, align 4, !tbaa !8
  %8 = zext i1 %2 to i8
  store i8 %8, ptr %6, align 1, !tbaa !25
  %9 = load ptr, ptr %4, align 8
  call void @llvm.lifetime.start.p0(i64 4, ptr %7) #3
  %10 = load i8, ptr %6, align 1, !tbaa !25, !range !27, !noundef !28
  %11 = trunc i8 %10 to i1
  %12 = zext i1 %11 to i32
  %13 = sub i32 0, %12
  store i32 %13, ptr %7, align 4, !tbaa !8
  %14 = load i32, ptr %7, align 4, !tbaa !8
  %15 = load i32, ptr %5, align 4, !tbaa !8
  %16 = call noundef nonnull align 4 dereferenceable(4) ptr @_ZN3sls5bvect12get_bit_wordEj(ptr noundef nonnull align 8 dereferenceable(20) %9, i32 noundef %15)
  %17 = load i32, ptr %16, align 4, !tbaa !8
  %18 = xor i32 %14, %17
  %19 = load i32, ptr %5, align 4, !tbaa !8
  %20 = call noundef i32 @_ZN3sls5bvect12get_pos_maskEj(i32 noundef %19)
  %21 = and i32 %18, %20
  %22 = load i32, ptr %5, align 4, !tbaa !8
  %23 = call noundef nonnull align 4 dereferenceable(4) ptr @_ZN3sls5bvect12get_bit_wordEj(ptr noundef nonnull align 8 dereferenceable(20) %9, i32 noundef %22)
  %24 = load i32, ptr %23, align 4, !tbaa !8
  %25 = xor i32 %24, %21
  store i32 %25, ptr %23, align 4, !tbaa !8
  call void @llvm.lifetime.end.p0(i64 4, ptr %7) #3
  ret void
}

; Function Attrs: mustprogress uwtable
define linkonce_odr hidden noundef zeroext i1 @_ZNK3sls5bvect3getEj(ptr noundef nonnull align 8 dereferenceable(20) %0, i32 noundef %1) #4 comdat align 2 {
  %3 = alloca ptr, align 8
  %4 = alloca i32, align 4
  store ptr %0, ptr %3, align 8, !tbaa !3
  store i32 %1, ptr %4, align 4, !tbaa !8
  %5 = load ptr, ptr %3, align 8
  %6 = load i32, ptr %4, align 4, !tbaa !8
  %7 = call noundef i32 @_ZNK3sls5bvect12get_bit_wordEj(ptr noundef nonnull align 8 dereferenceable(20) %5, i32 noundef %6)
  %8 = load i32, ptr %4, align 4, !tbaa !8
  %9 = call noundef i32 @_ZN3sls5bvect12get_pos_maskEj(i32 noundef %8)
  %10 = and i32 %7, %9
  %11 = icmp ne i32 %10, 0
  ret i1 %11
}

; Function Attrs: mustprogress uwtable
define hidden void @_ZNK3sls12bv_valuation11shift_rightERNS_5bvectEj(ptr noundef nonnull align 8 dereferenceable(184) %0, ptr noundef nonnull align 8 dereferenceable(20) %1, i32 noundef %2) #4 align 2 {
  %4 = alloca ptr, align 8
  %5 = alloca ptr, align 8
  %6 = alloca i32, align 4
  %7 = alloca i32, align 4
  store ptr %0, ptr %4, align 8, !tbaa !53
  store ptr %1, ptr %5, align 8, !tbaa !3
  store i32 %2, ptr %6, align 4, !tbaa !8
  %8 = load ptr, ptr %4, align 8
  call void @llvm.lifetime.start.p0(i64 4, ptr %7) #3
  store i32 0, ptr %7, align 4, !tbaa !8
  br label %9

9:                                                ; preds = %33, %3
  %10 = load i32, ptr %7, align 4, !tbaa !8
  %11 = getelementptr inbounds nuw %"class.sls::bv_valuation", ptr %8, i32 0, i32 8
  %12 = load i32, ptr %11, align 8, !tbaa !60
  %13 = icmp ult i32 %10, %12
  br i1 %13, label %15, label %14

14:                                               ; preds = %9
  call void @llvm.lifetime.end.p0(i64 4, ptr %7) #3
  br label %36

15:                                               ; preds = %9
  %16 = load ptr, ptr %5, align 8, !tbaa !3
  %17 = load i32, ptr %7, align 4, !tbaa !8
  %18 = load i32, ptr %7, align 4, !tbaa !8
  %19 = load i32, ptr %6, align 4, !tbaa !8
  %20 = add i32 %18, %19
  %21 = getelementptr inbounds nuw %"class.sls::bv_valuation", ptr %8, i32 0, i32 8
  %22 = load i32, ptr %21, align 8, !tbaa !60
  %23 = icmp ult i32 %20, %22
  br i1 %23, label %24, label %30

24:                                               ; preds = %15
  %25 = load ptr, ptr %5, align 8, !tbaa !3
  %26 = load i32, ptr %7, align 4, !tbaa !8
  %27 = load i32, ptr %6, align 4, !tbaa !8
  %28 = add i32 %26, %27
  %29 = call noundef zeroext i1 @_ZNK3sls5bvect3getEj(ptr noundef nonnull align 8 dereferenceable(20) %25, i32 noundef %28)
  br label %31

30:                                               ; preds = %15
  br label %31

31:                                               ; preds = %30, %24
  %32 = phi i1 [ %29, %24 ], [ false, %30 ]
  call void @_ZN3sls5bvect3setEjb(ptr noundef nonnull align 8 dereferenceable(20) %16, i32 noundef %17, i1 noundef zeroext %32)
  br label %33

33:                                               ; preds = %31
  %34 = load i32, ptr %7, align 4, !tbaa !8
  %35 = add i32 %34, 1
  store i32 %35, ptr %7, align 4, !tbaa !8
  br label %9, !llvm.loop !113

36:                                               ; preds = %14
  ret void
}