; Function Attrs: mustprogress nofree norecurse nosync nounwind memory(readwrite, inaccessiblemem: none) uwtable
define hidden void @_ZNK3sls12bv_valuation11shift_rightERNS_5bvectEj(ptr noundef nonnull readonly align 8 captures(none) dereferenceable(184) %0, ptr noundef nonnull readonly align 8 captures(none) dereferenceable(20) %1, i32 noundef %2) local_unnamed_addr #10 align 2 {
  %4 = getelementptr inbounds nuw i8, ptr %0, i64 152
  %5 = load i32, ptr %4, align 8, !tbaa !67
  %.not = icmp eq i32 %5, 0
  br i1 %.not, label %._crit_edge, label %.lr.ph

.lr.ph:                                           ; preds = %3
  %6 = load ptr, ptr %1, align 8
  br label %7

._crit_edge:                                      ; preds = %21, %3
  ret void

7:                                                ; preds = %.lr.ph, %21
  %8 = phi i32 [ %5, %.lr.ph ], [ %32, %21 ]
  %.011 = phi i32 [ 0, %.lr.ph ], [ %31, %21 ]
  %9 = add i32 %.011, %2
  %10 = icmp ult i32 %9, %8
  br i1 %10, label %11, label %21

11:                                               ; preds = %7
  %12 = lshr i32 %9, 5
  %13 = zext nneg i32 %12 to i64
  %14 = getelementptr inbounds nuw i32, ptr %6, i64 %13
  %15 = load i32, ptr %14, align 4, !tbaa !15
  %16 = and i32 %9, 31
  %17 = shl nuw i32 1, %16
  %18 = and i32 %15, %17
  %19 = icmp ne i32 %18, 0
  %20 = sext i1 %19 to i32
  br label %21

21:                                               ; preds = %7, %11
  %.neg.i = phi i32 [ %20, %11 ], [ 0, %7 ]
  %22 = lshr i32 %.011, 5
  %23 = zext nneg i32 %22 to i64
  %24 = getelementptr inbounds nuw i32, ptr %6, i64 %23
  %25 = load i32, ptr %24, align 4, !tbaa !15
  %26 = xor i32 %25, %.neg.i
  %27 = and i32 %.011, 31
  %28 = shl nuw i32 1, %27
  %29 = and i32 %26, %28
  %30 = xor i32 %29, %25
  store i32 %30, ptr %24, align 4, !tbaa !15
  %31 = add nuw i32 %.011, 1
  %32 = load i32, ptr %4, align 8, !tbaa !67
  %33 = icmp ult i32 %31, %32
  br i1 %33, label %7, label %._crit_edge, !llvm.loop !119
}